target datalayout = "e-m:e-p270:32:32-p271:32:32-p272:64:64-i64:64-i128:128-f80:128-n8:16:32:64-S128"
target triple = "x86_64-pc-linux-gnu"

%class.cmCTestSVN = type { %class.cmCTestGlobalVC, %"class.std::__cxx11::list.6", ptr }
%class.cmCTestGlobalVC = type { %class.cmCTestVC.base, %"class.std::map", %"class.std::__cxx11::basic_string", %"class.std::__cxx11::basic_string", %"struct.cmCTestVC::Revision", %"class.std::__cxx11::list" }
%class.cmCTestVC.base = type <{ ptr, ptr, ptr, %"class.std::__cxx11::basic_string", %"class.std::__cxx11::basic_string", %"class.std::__cxx11::basic_string", %"struct.cmCTestVC::Revision", [3 x i32] }>
%"class.std::map" = type { %"class.std::_Rb_tree" }
%"class.std::_Rb_tree" = type { %"struct.std::_Rb_tree<std::__cxx11::basic_string<char>, std::pair<const std::__cxx11::basic_string<char>, cmCTestGlobalVC::Directory>, std::_Select1st<std::pair<const std::__cxx11::basic_string<char>, cmCTestGlobalVC::Directory>>, std::less<std::__cxx11::basic_string<char>>>::_Rb_tree_impl" }
%"struct.std::_Rb_tree<std::__cxx11::basic_string<char>, std::pair<const std::__cxx11::basic_string<char>, cmCTestGlobalVC::Directory>, std::_Select1st<std::pair<const std::__cxx11::basic_string<char>, cmCTestGlobalVC::Directory>>, std::less<std::__cxx11::basic_string<char>>>::_Rb_tree_impl" = type { %"struct.std::_Rb_tree_key_compare", %"struct.std::_Rb_tree_header" }
%"struct.std::_Rb_tree_key_compare" = type { %"struct.std::less" }
%"struct.std::less" = type { i8 }
%"struct.std::_Rb_tree_header" = type { %"struct.std::_Rb_tree_node_base", i64 }
%"struct.std::_Rb_tree_node_base" = type { i32, ptr, ptr, ptr }
%"class.std::__cxx11::basic_string" = type { %"struct.std::__cxx11::basic_string<char>::_Alloc_hider", i64, %union.anon }
%"struct.std::__cxx11::basic_string<char>::_Alloc_hider" = type { ptr }
%union.anon = type { i64, [8 x i8] }
%"struct.cmCTestVC::Revision" = type { %"class.std::__cxx11::basic_string", %"class.std::__cxx11::basic_string", %"class.std::__cxx11::basic_string", %"class.std::__cxx11::basic_string", %"class.std::__cxx11::basic_string", %"class.std::__cxx11::basic_string", %"class.std::__cxx11::basic_string", %"class.std::__cxx11::basic_string" }
%"class.std::__cxx11::list" = type { %"class.std::__cxx11::_List_base" }
%"class.std::__cxx11::_List_base" = type { %"struct.std::__cxx11::_List_base<cmCTestVC::Revision, std::allocator<cmCTestVC::Revision>>::_List_impl" }
%"struct.std::__cxx11::_List_base<cmCTestVC::Revision, std::allocator<cmCTestVC::Revision>>::_List_impl" = type { %"struct.std::__detail::_List_node_header" }
%"struct.std::__detail::_List_node_header" = type { %"struct.std::__detail::_List_node_base", i64 }
%"struct.std::__detail::_List_node_base" = type { ptr, ptr }
%"class.std::__cxx11::list.6" = type { %"class.std::__cxx11::_List_base.7" }
%"class.std::__cxx11::_List_base.7" = type { %"struct.std::__cxx11::_List_base<cmCTestSVN::SVNInfo, std::allocator<cmCTestSVN::SVNInfo>>::_List_impl" }
%"struct.std::__cxx11::_List_base<cmCTestSVN::SVNInfo, std::allocator<cmCTestSVN::SVNInfo>>::_List_impl" = type { %"struct.std::__detail::_List_node_header" }
%class.cmCTestVC = type <{ ptr, ptr, ptr, %"class.std::__cxx11::basic_string", %"class.std::__cxx11::basic_string", %"class.std::__cxx11::basic_string", %"struct.cmCTestVC::Revision", [3 x i32], [4 x i8] }>

; Function Attrs: mustprogress nounwind uwtable
define linkonce_odr dso_local void @_ZNSt8__detail17_List_node_header7_M_initEv(ptr noundef nonnull align 8 dereferenceable(24) %0) #5 comdat align 2 {
  %2 = alloca ptr, align 8
  store ptr %0, ptr %2, align 8
  %3 = load ptr, ptr %2, align 8
  %4 = getelementptr inbounds %"struct.std::__detail::_List_node_base", ptr %3, i32 0, i32 1
  store ptr %3, ptr %4, align 8
  %5 = getelementptr inbounds %"struct.std::__detail::_List_node_base", ptr %3, i32 0, i32 0
  store ptr %3, ptr %5, align 8
  %6 = getelementptr inbounds %"struct.std::__detail::_List_node_header", ptr %3, i32 0, i32 1
  store i64 0, ptr %6, align 8
  ret void
}

; Function Attrs: mustprogress nounwind uwtable
define linkonce_odr dso_local void @_ZNSt15__new_allocatorISt10_List_nodeIN10cmCTestSVN7SVNInfoEEEC2Ev(ptr noundef nonnull align 1 dereferenceable(1) %0) unnamed_addr #5 comdat align 2 {
  %2 = alloca ptr, align 8
  store ptr %0, ptr %2, align 8
  ret void
}

; Function Attrs: mustprogress nounwind uwtable
define linkonce_odr dso_local void @_ZNSt8__detail17_List_node_headerC2Ev(ptr noundef nonnull align 8 dereferenceable(24) %0) unnamed_addr #5 comdat align 2 {
  %2 = alloca ptr, align 8
  store ptr %0, ptr %2, align 8
  %3 = load ptr, ptr %2, align 8
  call void @_ZNSt8__detail17_List_node_header7_M_initEv(ptr noundef nonnull align 8 dereferenceable(24) %3) #3
  ret void
}

; Function Attrs: mustprogress nounwind uwtable
define linkonce_odr dso_local void @_ZNSaISt10_List_nodeIN10cmCTestSVN7SVNInfoEEEC2Ev(ptr noundef nonnull align 1 dereferenceable(1) %0) unnamed_addr #5 comdat align 2 {
  %2 = alloca ptr, align 8
  store ptr %0, ptr %2, align 8
  %3 = load ptr, ptr %2, align 8
  call void @_ZNSt15__new_allocatorISt10_List_nodeIN10cmCTestSVN7SVNInfoEEEC2Ev(ptr noundef nonnull align 1 dereferenceable(1) %3) #3
  ret void
}

; Function Attrs: mustprogress nounwind uwtable
define linkonce_odr dso_local void @_ZNSt7__cxx1110_List_baseIN10cmCTestSVN7SVNInfoESaIS2_EE10_List_implC2Ev(ptr noundef nonnull align 8 dereferenceable(24) %0) unnamed_addr #5 comdat align 2 {
  %2 = alloca ptr, align 8
  store ptr %0, ptr %2, align 8
  %3 = load ptr, ptr %2, align 8
  call void @_ZNSaISt10_List_nodeIN10cmCTestSVN7SVNInfoEEEC2Ev(ptr noundef nonnull align 1 dereferenceable(1) %3) #3
  %4 = getelementptr inbounds %"struct.std::__cxx11::_List_base<cmCTestSVN::SVNInfo, std::allocator<cmCTestSVN::SVNInfo>>::_List_impl", ptr %3, i32 0, i32 0
  call void @_ZNSt8__detail17_List_node_headerC2Ev(ptr noundef nonnull align 8 dereferenceable(24) %4) #3
  ret void
}

; Function Attrs: mustprogress nounwind uwtable
define linkonce_odr dso_local void @_ZNSt7__cxx1110_List_baseIN10cmCTestSVN7SVNInfoESaIS2_EEC2Ev(ptr noundef nonnull align 8 dereferenceable(24) %0) unnamed_addr #5 comdat align 2 {
  %2 = alloca ptr, align 8
  store ptr %0, ptr %2, align 8
  %3 = load ptr, ptr %2, align 8
  %4 = getelementptr inbounds %"class.std::__cxx11::_List_base.7", ptr %3, i32 0, i32 0
  call void @_ZNSt7__cxx1110_List_baseIN10cmCTestSVN7SVNInfoESaIS2_EE10_List_implC2Ev(ptr noundef nonnull align 8 dereferenceable(24) %4) #3
  ret void
}

; Function Attrs: mustprogress uwtable
define linkonce_odr dso_local noundef nonnull align 8 dereferenceable(256) ptr @_ZN9cmCTestVC8RevisionaSERKS0_(ptr noundef nonnull align 8 dereferenceable(256) %0, ptr noundef nonnull align 8 dereferenceable(256) %1) #4 comdat align 2 {
  %3 = alloca ptr, align 8
  %4 = alloca ptr, align 8
  store ptr %0, ptr %3, align 8
  store ptr %1, ptr %4, align 8
  %5 = load ptr, ptr %3, align 8
  %6 = getelementptr inbounds %"struct.cmCTestVC::Revision", ptr %5, i32 0, i32 0
  %7 = load ptr, ptr %4, align 8
  %8 = getelementptr inbounds %"struct.cmCTestVC::Revision", ptr %7, i32 0, i32 0
  %9 = call noundef nonnull align 8 dereferenceable(32) ptr @_ZNSt7__cxx1112basic_stringIcSt11char_traitsIcESaIcEEaSERKS4_(ptr noundef nonnull align 8 dereferenceable(32) %6, ptr noundef nonnull align 8 dereferenceable(32) %8)
  %10 = getelementptr inbounds %"struct.cmCTestVC::Revision", ptr %5, i32 0, i32 1
  %11 = load ptr, ptr %4, align 8
  %12 = getelementptr inbounds %"struct.cmCTestVC::Revision", ptr %11, i32 0, i32 1
  %13 = call noundef nonnull align 8 dereferenceable(32) ptr @_ZNSt7__cxx1112basic_stringIcSt11char_traitsIcESaIcEEaSERKS4_(ptr noundef nonnull align 8 dereferenceable(32) %10, ptr noundef nonnull align 8 dereferenceable(32) %12)
  %14 = getelementptr inbounds %"struct.cmCTestVC::Revision", ptr %5, i32 0, i32 2
  %15 = load ptr, ptr %4, align 8
  %16 = getelementptr inbounds %"struct.cmCTestVC::Revision", ptr %15, i32 0, i32 2
  %17 = call noundef nonnull align 8 dereferenceable(32) ptr @_ZNSt7__cxx1112basic_stringIcSt11char_traitsIcESaIcEEaSERKS4_(ptr noundef nonnull align 8 dereferenceable(32) %14, ptr noundef nonnull align 8 dereferenceable(32) %16)
  %18 = getelementptr inbounds %"struct.cmCTestVC::Revision", ptr %5, i32 0, i32 3
  %19 = load ptr, ptr %4, align 8
  %20 = getelementptr inbounds %"struct.cmCTestVC::Revision", ptr %19, i32 0, i32 3
  %21 = call noundef nonnull align 8 dereferenceable(32) ptr @_ZNSt7__cxx1112basic_stringIcSt11char_traitsIcESaIcEEaSERKS4_(ptr noundef nonnull align 8 dereferenceable(32) %18, ptr noundef nonnull align 8 dereferenceable(32) %20)
  %22 = getelementptr inbounds %"struct.cmCTestVC::Revision", ptr %5, i32 0, i32 4
  %23 = load ptr, ptr %4, align 8
  %24 = getelementptr inbounds %"struct.cmCTestVC::Revision", ptr %23, i32 0, i32 4
  %25 = call noundef nonnull align 8 dereferenceable(32) ptr @_ZNSt7__cxx1112basic_stringIcSt11char_traitsIcESaIcEEaSERKS4_(ptr noundef nonnull align 8 dereferenceable(32) %22, ptr noundef nonnull align 8 dereferenceable(32) %24)
  %26 = getelementptr inbounds %"struct.cmCTestVC::Revision", ptr %5, i32 0, i32 5
  %27 = load ptr, ptr %4, align 8
  %28 = getelementptr inbounds %"struct.cmCTestVC::Revision", ptr %27, i32 0, i32 5
  %29 = call noundef nonnull align 8 dereferenceable(32) ptr @_ZNSt7__cxx1112basic_stringIcSt11char_traitsIcESaIcEEaSERKS4_(ptr noundef nonnull align 8 dereferenceable(32) %26, ptr noundef nonnull align 8 dereferenceable(32) %28)
  %30 = getelementptr inbounds %"struct.cmCTestVC::Revision", ptr %5, i32 0, i32 6
  %31 = load ptr, ptr %4, align 8
  %32 = getelementptr inbounds %"struct.cmCTestVC::Revision", ptr %31, i32 0, i32 6
  %33 = call noundef nonnull align 8 dereferenceable(32) ptr @_ZNSt7__cxx1112basic_stringIcSt11char_traitsIcESaIcEEaSERKS4_(ptr noundef nonnull align 8 dereferenceable(32) %30, ptr noundef nonnull align 8 dereferenceable(32) %32)
  %34 = getelementptr inbounds %"struct.cmCTestVC::Revision", ptr %5, i32 0, i32 7
  %35 = load ptr, ptr %4, align 8
  %36 = getelementptr inbounds %"struct.cmCTestVC::Revision", ptr %35, i32 0, i32 7
  %37 = call noundef nonnull align 8 dereferenceable(32) ptr @_ZNSt7__cxx1112basic_stringIcSt11char_traitsIcESaIcEEaSERKS4_(ptr noundef nonnull align 8 dereferenceable(32) %34, ptr noundef nonnull align 8 dereferenceable(32) %36)
  ret ptr %5
}

; Function Attrs: mustprogress nounwind uwtable
define linkonce_odr dso_local void @_ZNSt7__cxx114listIN10cmCTestSVN7SVNInfoESaIS2_EEC2Ev(ptr noundef nonnull align 8 dereferenceable(24) %0) unnamed_addr #5 comdat align 2 {
  %2 = alloca ptr, align 8
  store ptr %0, ptr %2, align 8
  %3 = load ptr, ptr %2, align 8
  call void @_ZNSt7__cxx1110_List_baseIN10cmCTestSVN7SVNInfoESaIS2_EEC2Ev(ptr noundef nonnull align 8 dereferenceable(24) %3) #3
  ret void
}

; Function Attrs: mustprogress uwtable
define dso_local void @_ZN10cmCTestSVNC2EP7cmCTestRSo(ptr noundef nonnull align 8 dereferenceable(816) %0, ptr noundef %1, ptr noundef nonnull align 8 dereferenceable(8) %2) unnamed_addr #4 align 2 personality ptr @__gxx_personality_v0 {
  %4 = alloca ptr, align 8
  %5 = alloca ptr, align 8
  %6 = alloca ptr, align 8
  %7 = alloca ptr, align 8
  %8 = alloca i32, align 4
  store ptr %0, ptr %4, align 8
  store ptr %1, ptr %5, align 8
  store ptr %2, ptr %6, align 8
  %9 = load ptr, ptr %4, align 8
  %10 = load ptr, ptr %5, align 8
  %11 = load ptr, ptr %6, align 8
  call void @_ZN15cmCTestGlobalVCC2EP7cmCTestRSo(ptr noundef nonnull align 8 dereferenceable(784) %9, ptr noundef %10, ptr noundef nonnull align 8 dereferenceable(8) %11)
  store ptr getelementptr inbounds ({ [16 x ptr] }, ptr @_ZTV10cmCTestSVN, i32 0, i32 0, i32 2), ptr %9, align 8
  %12 = getelementptr inbounds %class.cmCTestSVN, ptr %9, i32 0, i32 1
  call void @_ZNSt7__cxx114listIN10cmCTestSVN7SVNInfoESaIS2_EEC2Ev(ptr noundef nonnull align 8 dereferenceable(24) %12) #3
  %13 = getelementptr inbounds %class.cmCTestVC, ptr %9, i32 0, i32 6
  %14 = getelementptr inbounds %class.cmCTestGlobalVC, ptr %9, i32 0, i32 4
  %15 = invoke noundef nonnull align 8 dereferenceable(256) ptr @_ZN9cmCTestVC8RevisionaSERKS0_(ptr noundef nonnull align 8 dereferenceable(256) %14, ptr noundef nonnull align 8 dereferenceable(256) %13)
          to label %16 unwind label %17

16:                                               ; preds = %3
  ret void

17:                                               ; preds = %3
  %18 = landingpad { ptr, i32 }
          cleanup
  %19 = extractvalue { ptr, i32 } %18, 0
  store ptr %19, ptr %7, align 8
  %20 = extractvalue { ptr, i32 } %18, 1
  store i32 %20, ptr %8, align 4
  call void @_ZNSt7__cxx114listIN10cmCTestSVN7SVNInfoESaIS2_EED2Ev(ptr noundef nonnull align 8 dereferenceable(24) %12) #3
  call void @_ZN15cmCTestGlobalVCD2Ev(ptr noundef nonnull align 8 dereferenceable(784) %9) #3
  br label %21

21:                                               ; preds = %17
  %22 = load ptr, ptr %7, align 8
  %23 = load i32, ptr %8, align 4
  %24 = insertvalue { ptr, i32 } poison, ptr %22, 0
  %25 = insertvalue { ptr, i32 } %24, i32 %23, 1
  resume { ptr, i32 } %25
}