; Function Attrs: mustprogress uwtable
define dso_local void @_ZN10cmCTestSVNC2EP7cmCTestRSo(ptr noundef nonnull align 8 dereferenceable(816) %0, ptr noundef %1, ptr noundef nonnull align 8 dereferenceable(8) %2) unnamed_addr #3 align 2 personality ptr @__gxx_personality_v0 {
  tail call void @_ZN15cmCTestGlobalVCC2EP7cmCTestRSo(ptr noundef nonnull align 8 dereferenceable(784) %0, ptr noundef %1, ptr noundef nonnull align 8 dereferenceable(8) %2)
  store ptr getelementptr inbounds ({ [16 x ptr] }, ptr @_ZTV10cmCTestSVN, i64 0, i32 0, i64 2), ptr %0, align 8
  %4 = getelementptr inbounds i8, ptr %0, i64 784
  %5 = getelementptr inbounds i8, ptr %0, i64 792
  store ptr %4, ptr %5, align 8
  store ptr %4, ptr %4, align 8
  %6 = getelementptr inbounds i8, ptr %0, i64 800
  store i64 0, ptr %6, align 8
  %7 = getelementptr inbounds i8, ptr %0, i64 120
  %8 = getelementptr inbounds i8, ptr %0, i64 504
  %9 = invoke noundef nonnull align 8 dereferenceable(32) ptr @_ZNSt7__cxx1112basic_stringIcSt11char_traitsIcESaIcEEaSERKS4_(ptr noundef nonnull align 8 dereferenceable(32) %8, ptr noundef nonnull align 8 dereferenceable(32) %7)
          to label %.noexc unwind label %31

.noexc:                                           ; preds = %3
  %10 = getelementptr inbounds i8, ptr %0, i64 536
  %11 = getelementptr inbounds i8, ptr %0, i64 152
  %12 = invoke noundef nonnull align 8 dereferenceable(32) ptr @_ZNSt7__cxx1112basic_stringIcSt11char_traitsIcESaIcEEaSERKS4_(ptr noundef nonnull align 8 dereferenceable(32) %10, ptr noundef nonnull align 8 dereferenceable(32) %11)
          to label %.noexc4 unwind label %31

.noexc4:                                          ; preds = %.noexc
  %13 = getelementptr inbounds i8, ptr %0, i64 568
  %14 = getelementptr inbounds i8, ptr %0, i64 184
  %15 = invoke noundef nonnull align 8 dereferenceable(32) ptr @_ZNSt7__cxx1112basic_stringIcSt11char_traitsIcESaIcEEaSERKS4_(ptr noundef nonnull align 8 dereferenceable(32) %13, ptr noundef nonnull align 8 dereferenceable(32) %14)
          to label %.noexc5 unwind label %31

.noexc5:                                          ; preds = %.noexc4
  %16 = getelementptr inbounds i8, ptr %0, i64 600
  %17 = getelementptr inbounds i8, ptr %0, i64 216
  %18 = invoke noundef nonnull align 8 dereferenceable(32) ptr @_ZNSt7__cxx1112basic_stringIcSt11char_traitsIcESaIcEEaSERKS4_(ptr noundef nonnull align 8 dereferenceable(32) %16, ptr noundef nonnull align 8 dereferenceable(32) %17)
          to label %.noexc6 unwind label %31

.noexc6:                                          ; preds = %.noexc5
  %19 = getelementptr inbounds i8, ptr %0, i64 632
  %20 = getelementptr inbounds i8, ptr %0, i64 248
  %21 = invoke noundef nonnull align 8 dereferenceable(32) ptr @_ZNSt7__cxx1112basic_stringIcSt11char_traitsIcESaIcEEaSERKS4_(ptr noundef nonnull align 8 dereferenceable(32) %19, ptr noundef nonnull align 8 dereferenceable(32) %20)
          to label %.noexc7 unwind label %31

.noexc7:                                          ; preds = %.noexc6
  %22 = getelementptr inbounds i8, ptr %0, i64 664
  %23 = getelementptr inbounds i8, ptr %0, i64 280
  %24 = invoke noundef nonnull align 8 dereferenceable(32) ptr @_ZNSt7__cxx1112basic_stringIcSt11char_traitsIcESaIcEEaSERKS4_(ptr noundef nonnull align 8 dereferenceable(32) %22, ptr noundef nonnull align 8 dereferenceable(32) %23)
          to label %.noexc8 unwind label %31

.noexc8:                                          ; preds = %.noexc7
  %25 = getelementptr inbounds i8, ptr %0, i64 696
  %26 = getelementptr inbounds i8, ptr %0, i64 312
  %27 = invoke noundef nonnull align 8 dereferenceable(32) ptr @_ZNSt7__cxx1112basic_stringIcSt11char_traitsIcESaIcEEaSERKS4_(ptr noundef nonnull align 8 dereferenceable(32) %25, ptr noundef nonnull align 8 dereferenceable(32) %26)
          to label %.noexc9 unwind label %31

.noexc9:                                          ; preds = %.noexc8
  %28 = getelementptr inbounds i8, ptr %0, i64 728
  %29 = getelementptr inbounds i8, ptr %0, i64 344
  %30 = invoke noundef nonnull align 8 dereferenceable(32) ptr @_ZNSt7__cxx1112basic_stringIcSt11char_traitsIcESaIcEEaSERKS4_(ptr noundef nonnull align 8 dereferenceable(32) %28, ptr noundef nonnull align 8 dereferenceable(32) %29)
          to label %_ZN9cmCTestVC8RevisionaSERKS0_.exit unwind label %31

_ZN9cmCTestVC8RevisionaSERKS0_.exit:              ; preds = %.noexc9
  ret void

31:                                               ; preds = %.noexc9, %.noexc8, %.noexc7, %.noexc6, %.noexc5, %.noexc4, %.noexc, %3
  %32 = landingpad { ptr, i32 }
          cleanup
  tail call void @_ZNSt7__cxx114listIN10cmCTestSVN7SVNInfoESaIS2_EED2Ev(ptr noundef nonnull align 8 dereferenceable(24) %4) #19
  tail call void @_ZN15cmCTestGlobalVCD2Ev(ptr noundef nonnull align 8 dereferenceable(784) %0) #19
  resume { ptr, i32 } %32
}